; ModuleID = '9/1586.c'
source_filename = "9/1586.c"
target datalayout = "e-m:e-p270:32:32-p271:32:32-p272:64:64-i64:64-f80:128-n8:16:32:64-S128"
target triple = "x86_64-pc-linux-gnu"

%struct.patient = type { [20 x i8], i32 }

@.str = private unnamed_addr constant [3 x i8] c"%d\00", align 1
@.str.1 = private unnamed_addr constant [5 x i8] c"%s%d\00", align 1
@.str.2 = private unnamed_addr constant [4 x i8] c"%s\0A\00", align 1

; Function Attrs: noinline nounwind uwtable
define dso_local i32 @main() #0 {
  %1 = alloca i32, align 4
  %2 = alloca i32, align 4
  %3 = alloca i32, align 4
  %4 = alloca i32, align 4
  %5 = alloca i32, align 4
  %6 = alloca i32, align 4
  %7 = alloca [20 x i8], align 16
  %8 = alloca [200 x %struct.patient], align 16
  store i32 0, i32* %1, align 4
  %9 = call i32 (i8*, ...) @__isoc99_scanf(i8* getelementptr inbounds ([3 x i8], [3 x i8]* @.str, i64 0, i64 0), i32* %5)
  store i32 0, i32* %2, align 4
  br label %10

10:                                               ; preds = %25, %0
  %11 = load i32, i32* %2, align 4
  %12 = load i32, i32* %5, align 4
  %13 = icmp slt i32 %11, %12
  br i1 %13, label %14, label %28

14:                                               ; preds = %10
  %15 = load i32, i32* %2, align 4
  %16 = sext i32 %15 to i64
  %17 = getelementptr inbounds [200 x %struct.patient], [200 x %struct.patient]* %8, i64 0, i64 %16
  %18 = getelementptr inbounds %struct.patient, %struct.patient* %17, i32 0, i32 0
  %19 = getelementptr inbounds [20 x i8], [20 x i8]* %18, i64 0, i64 0
  %20 = load i32, i32* %2, align 4
  %21 = sext i32 %20 to i64
  %22 = getelementptr inbounds [200 x %struct.patient], [200 x %struct.patient]* %8, i64 0, i64 %21
  %23 = getelementptr inbounds %struct.patient, %struct.patient* %22, i32 0, i32 1
  %24 = call i32 (i8*, ...) @__isoc99_scanf(i8* getelementptr inbounds ([5 x i8], [5 x i8]* @.str.1, i64 0, i64 0), i8* %19, i32* %23)
  br label %25

25:                                               ; preds = %14
  %26 = load i32, i32* %2, align 4
  %27 = add nsw i32 %26, 1
  store i32 %27, i32* %2, align 4
  br label %10

28:                                               ; preds = %10
  store i32 0, i32* %2, align 4
  br label %29

29:                                               ; preds = %131, %28
  %30 = load i32, i32* %2, align 4
  %31 = load i32, i32* %5, align 4
  %32 = icmp slt i32 %30, %31
  br i1 %32, label %33, label %134

33:                                               ; preds = %29
  %34 = load i32, i32* %5, align 4
  %35 = sub nsw i32 %34, 2
  store i32 %35, i32* %3, align 4
  br label %36

36:                                               ; preds = %121, %33
  %37 = load i32, i32* %3, align 4
  %38 = load i32, i32* %2, align 4
  %39 = icmp sge i32 %37, %38
  br i1 %39, label %40, label %124

40:                                               ; preds = %36
  %41 = load i32, i32* %3, align 4
  %42 = add nsw i32 %41, 1
  %43 = sext i32 %42 to i64
  %44 = getelementptr inbounds [200 x %struct.patient], [200 x %struct.patient]* %8, i64 0, i64 %43
  %45 = getelementptr inbounds %struct.patient, %struct.patient* %44, i32 0, i32 1
  %46 = load i32, i32* %45, align 4
  %47 = icmp sge i32 %46, 60
  br i1 %47, label %48, label %120

48:                                               ; preds = %40
  %49 = load i32, i32* %3, align 4
  %50 = add nsw i32 %49, 1
  %51 = sext i32 %50 to i64
  %52 = getelementptr inbounds [200 x %struct.patient], [200 x %struct.patient]* %8, i64 0, i64 %51
  %53 = getelementptr inbounds %struct.patient, %struct.patient* %52, i32 0, i32 1
  %54 = load i32, i32* %53, align 4
  %55 = load i32, i32* %3, align 4
  %56 = sext i32 %55 to i64
  %57 = getelementptr inbounds [200 x %struct.patient], [200 x %struct.patient]* %8, i64 0, i64 %56
  %58 = getelementptr inbounds %struct.patient, %struct.patient* %57, i32 0, i32 1
  %59 = load i32, i32* %58, align 4
  %60 = icmp sgt i32 %54, %59
  br i1 %60, label %61, label %120

61:                                               ; preds = %48
  %62 = load i32, i32* %3, align 4
  %63 = sext i32 %62 to i64
  %64 = getelementptr inbounds [200 x %struct.patient], [200 x %struct.patient]* %8, i64 0, i64 %63
  %65 = getelementptr inbounds %struct.patient, %struct.patient* %64, i32 0, i32 1
  %66 = load i32, i32* %65, align 4
  store i32 %66, i32* %4, align 4
  %67 = load i32, i32* %3, align 4
  %68 = add nsw i32 %67, 1
  %69 = sext i32 %68 to i64
  %70 = getelementptr inbounds [200 x %struct.patient], [200 x %struct.patient]* %8, i64 0, i64 %69
  %71 = getelementptr inbounds %struct.patient, %struct.patient* %70, i32 0, i32 1
  %72 = load i32, i32* %71, align 4
  %73 = load i32, i32* %3, align 4
  %74 = sext i32 %73 to i64
  %75 = getelementptr inbounds [200 x %struct.patient], [200 x %struct.patient]* %8, i64 0, i64 %74
  %76 = getelementptr inbounds %struct.patient, %struct.patient* %75, i32 0, i32 1
  store i32 %72, i32* %76, align 4
  %77 = load i32, i32* %4, align 4
  %78 = load i32, i32* %3, align 4
  %79 = add nsw i32 %78, 1
  %80 = sext i32 %79 to i64
  %81 = getelementptr inbounds [200 x %struct.patient], [200 x %struct.patient]* %8, i64 0, i64 %80
  %82 = getelementptr inbounds %struct.patient, %struct.patient* %81, i32 0, i32 1
  store i32 %77, i32* %82, align 4
  %83 = load i32, i32* %3, align 4
  %84 = sext i32 %83 to i64
  %85 = getelementptr inbounds [200 x %struct.patient], [200 x %struct.patient]* %8, i64 0, i64 %84
  %86 = getelementptr inbounds %struct.patient, %struct.patient* %85, i32 0, i32 0
  %87 = getelementptr inbounds [20 x i8], [20 x i8]* %86, i64 0, i64 0
  %88 = call i64 @strlen(i8* %87) #4
  %89 = trunc i64 %88 to i32
  store i32 %89, i32* %6, align 4
  %90 = getelementptr inbounds [20 x i8], [20 x i8]* %7, i64 0, i64 0
  %91 = load i32, i32* %3, align 4
  %92 = sext i32 %91 to i64
  %93 = getelementptr inbounds [200 x %struct.patient], [200 x %struct.patient]* %8, i64 0, i64 %92
  %94 = getelementptr inbounds %struct.patient, %struct.patient* %93, i32 0, i32 0
  %95 = getelementptr inbounds [20 x i8], [20 x i8]* %94, i64 0, i64 0
  %96 = call i8* @strcpy(i8* %90, i8* %95) #5
  %97 = load i32, i32* %6, align 4
  %98 = sext i32 %97 to i64
  %99 = getelementptr inbounds [20 x i8], [20 x i8]* %7, i64 0, i64 %98
  store i8 0, i8* %99, align 1
  %100 = load i32, i32* %3, align 4
  %101 = sext i32 %100 to i64
  %102 = getelementptr inbounds [200 x %struct.patient], [200 x %struct.patient]* %8, i64 0, i64 %101
  %103 = getelementptr inbounds %struct.patient, %struct.patient* %102, i32 0, i32 0
  %104 = getelementptr inbounds [20 x i8], [20 x i8]* %103, i64 0, i64 0
  %105 = load i32, i32* %3, align 4
  %106 = add nsw i32 %105, 1
  %107 = sext i32 %106 to i64
  %108 = getelementptr inbounds [200 x %struct.patient], [200 x %struct.patient]* %8, i64 0, i64 %107
  %109 = getelementptr inbounds %struct.patient, %struct.patient* %108, i32 0, i32 0
  %110 = getelementptr inbounds [20 x i8], [20 x i8]* %109, i64 0, i64 0
  %111 = call i8* @strcpy(i8* %104, i8* %110) #5
  %112 = load i32, i32* %3, align 4
  %113 = add nsw i32 %112, 1
  %114 = sext i32 %113 to i64
  %115 = getelementptr inbounds [200 x %struct.patient], [200 x %struct.patient]* %8, i64 0, i64 %114
  %116 = getelementptr inbounds %struct.patient, %struct.patient* %115, i32 0, i32 0
  %117 = getelementptr inbounds [20 x i8], [20 x i8]* %116, i64 0, i64 0
  %118 = getelementptr inbounds [20 x i8], [20 x i8]* %7, i64 0, i64 0
  %119 = call i8* @strcpy(i8* %117, i8* %118) #5
  br label %120

120:                                              ; preds = %61, %48, %40
  br label %121

121:                                              ; preds = %120
  %122 = load i32, i32* %3, align 4
  %123 = add nsw i32 %122, -1
  store i32 %123, i32* %3, align 4
  br label %36

124:                                              ; preds = %36
  %125 = load i32, i32* %2, align 4
  %126 = sext i32 %125 to i64
  %127 = getelementptr inbounds [200 x %struct.patient], [200 x %struct.patient]* %8, i64 0, i64 %126
  %128 = getelementptr inbounds %struct.patient, %struct.patient* %127, i32 0, i32 0
  %129 = getelementptr inbounds [20 x i8], [20 x i8]* %128, i64 0, i64 0
  %130 = call i32 (i8*, ...) @printf(i8* getelementptr inbounds ([4 x i8], [4 x i8]* @.str.2, i64 0, i64 0), i8* %129)
  br label %131

131:                                              ; preds = %124
  %132 = load i32, i32* %2, align 4
  %133 = add nsw i32 %132, 1
  store i32 %133, i32* %2, align 4
  br label %29

134:                                              ; preds = %29
  ret i32 0
}

declare dso_local i32 @__isoc99_scanf(i8*, ...) #1

; Function Attrs: nounwind readonly
declare dso_local i64 @strlen(i8*) #2

; Function Attrs: nounwind
declare dso_local i8* @strcpy(i8*, i8*) #3

declare dso_local i32 @printf(i8*, ...) #1


!llvm.module.flags = !{!0}
!llvm.ident = !{!1}

!0 = !{i32 1, !"wchar_size", i32 4}
!1 = !{!"clang version 10.0.0-4ubuntu1 "}
