; ModuleID = 'source-C-CXX/8/1586.c'
source_filename = "source-C-CXX/8/1586.c"
target datalayout = "e-m:e-p270:32:32-p271:32:32-p272:64:64-i64:64-f80:128-n8:16:32:64-S128"
target triple = "x86_64-pc-linux-gnu"

%struct.patient = type { [20 x i8], i32 }

@.str = private unnamed_addr constant [3 x i8] c"%d\00", align 1
@.str.1 = private unnamed_addr constant [5 x i8] c"%s%d\00", align 1

; Function Attrs: nofree nounwind sspstrong uwtable
define dso_local i32 @main() local_unnamed_addr #0 {
  %1 = alloca i32, align 4
  %2 = alloca [20 x i8], align 16
  %3 = alloca [200 x %struct.patient], align 16
  %4 = bitcast i32* %1 to i8*
  call void @llvm.lifetime.start.p0i8(i64 4, i8* nonnull %4) #6
  %5 = getelementptr inbounds [20 x i8], [20 x i8]* %2, i64 0, i64 0
  call void @llvm.lifetime.start.p0i8(i64 20, i8* nonnull %5) #6
  %6 = getelementptr inbounds [200 x %struct.patient], [200 x %struct.patient]* %3, i64 0, i64 0, i32 0, i64 0
  call void @llvm.lifetime.start.p0i8(i64 4800, i8* nonnull %6) #6
  %7 = call i32 (i8*, ...) @__isoc99_scanf(i8* getelementptr inbounds ([3 x i8], [3 x i8]* @.str, i64 0, i64 0), i32* nonnull %1)
  %8 = load i32, i32* %1, align 4, !tbaa !5
  %9 = icmp sgt i32 %8, 0
  br i1 %9, label %12, label %57

10:                                               ; preds = %12
  %11 = icmp sgt i32 %18, 0
  br i1 %11, label %21, label %57

12:                                               ; preds = %0, %12
  %13 = phi i64 [ %17, %12 ], [ 0, %0 ]
  %14 = getelementptr inbounds [200 x %struct.patient], [200 x %struct.patient]* %3, i64 0, i64 %13, i32 0, i64 0
  %15 = getelementptr inbounds [200 x %struct.patient], [200 x %struct.patient]* %3, i64 0, i64 %13, i32 1
  %16 = call i32 (i8*, ...) @__isoc99_scanf(i8* getelementptr inbounds ([5 x i8], [5 x i8]* @.str.1, i64 0, i64 0), i8* nonnull %14, i32* nonnull %15)
  %17 = add nuw nsw i64 %13, 1
  %18 = load i32, i32* %1, align 4, !tbaa !5
  %19 = sext i32 %18 to i64
  %20 = icmp slt i64 %17, %19
  br i1 %20, label %12, label %10, !llvm.loop !9

21:                                               ; preds = %10, %50
  %22 = phi i64 [ %53, %50 ], [ 0, %10 ]
  %23 = phi i32 [ %54, %50 ], [ %18, %10 ]
  %24 = add i32 %23, -2
  %25 = sext i32 %24 to i64
  %26 = icmp sgt i64 %22, %25
  br i1 %26, label %50, label %27

27:                                               ; preds = %21, %47
  %28 = phi i64 [ %48, %47 ], [ %25, %21 ]
  %29 = add nsw i64 %28, 1
  %30 = getelementptr inbounds [200 x %struct.patient], [200 x %struct.patient]* %3, i64 0, i64 %29, i32 1
  %31 = load i32, i32* %30, align 4, !tbaa !11
  %32 = icmp sgt i32 %31, 59
  br i1 %32, label %33, label %47

33:                                               ; preds = %27
  %34 = getelementptr inbounds [200 x %struct.patient], [200 x %struct.patient]* %3, i64 0, i64 %28, i32 1
  %35 = load i32, i32* %34, align 4, !tbaa !11
  %36 = icmp sgt i32 %31, %35
  br i1 %36, label %37, label %47

37:                                               ; preds = %33
  store i32 %31, i32* %34, align 4, !tbaa !11
  store i32 %35, i32* %30, align 4, !tbaa !11
  %38 = getelementptr inbounds [200 x %struct.patient], [200 x %struct.patient]* %3, i64 0, i64 %28, i32 0, i64 0
  %39 = call i64 @strlen(i8* noundef nonnull %38) #7
  %40 = call i8* @strcpy(i8* noundef nonnull %5, i8* noundef nonnull %38) #6
  %41 = shl i64 %39, 32
  %42 = ashr exact i64 %41, 32
  %43 = getelementptr inbounds [20 x i8], [20 x i8]* %2, i64 0, i64 %42
  store i8 0, i8* %43, align 1, !tbaa !13
  %44 = getelementptr inbounds [200 x %struct.patient], [200 x %struct.patient]* %3, i64 0, i64 %29, i32 0, i64 0
  %45 = call i8* @strcpy(i8* noundef nonnull %38, i8* noundef nonnull %44) #6
  %46 = call i8* @strcpy(i8* noundef nonnull %44, i8* noundef nonnull %5) #6
  br label %47

47:                                               ; preds = %27, %33, %37
  %48 = add nsw i64 %28, -1
  %49 = icmp sgt i64 %28, %22
  br i1 %49, label %27, label %50, !llvm.loop !14

50:                                               ; preds = %47, %21
  %51 = getelementptr inbounds [200 x %struct.patient], [200 x %struct.patient]* %3, i64 0, i64 %22, i32 0, i64 0
  %52 = call i32 @puts(i8* nonnull %51)
  %53 = add nuw nsw i64 %22, 1
  %54 = load i32, i32* %1, align 4, !tbaa !5
  %55 = sext i32 %54 to i64
  %56 = icmp slt i64 %53, %55
  br i1 %56, label %21, label %57, !llvm.loop !15

57:                                               ; preds = %50, %0, %10
  call void @llvm.lifetime.end.p0i8(i64 4800, i8* nonnull %6) #6
  call void @llvm.lifetime.end.p0i8(i64 20, i8* nonnull %5) #6
  call void @llvm.lifetime.end.p0i8(i64 4, i8* nonnull %4) #6
  ret i32 0
}

; Function Attrs: argmemonly mustprogress nofree nosync nounwind willreturn
declare void @llvm.lifetime.start.p0i8(i64 immarg, i8* nocapture) #1

; Function Attrs: nofree nounwind
declare noundef i32 @__isoc99_scanf(i8* nocapture noundef readonly, ...) local_unnamed_addr #2

; Function Attrs: argmemonly mustprogress nofree nounwind readonly willreturn
declare i64 @strlen(i8* nocapture) local_unnamed_addr #3

; Function Attrs: argmemonly mustprogress nofree nounwind willreturn
declare i8* @strcpy(i8* noalias returned writeonly, i8* noalias nocapture readonly) local_unnamed_addr #4

; Function Attrs: argmemonly mustprogress nofree nosync nounwind willreturn
declare void @llvm.lifetime.end.p0i8(i64 immarg, i8* nocapture) #1

; Function Attrs: nofree nounwind
declare noundef i32 @puts(i8* nocapture noundef readonly) local_unnamed_addr #5


!llvm.module.flags = !{!0, !1, !2, !3}
!llvm.ident = !{!4}

!0 = !{i32 1, !"wchar_size", i32 4}
!1 = !{i32 7, !"PIC Level", i32 2}
!2 = !{i32 7, !"PIE Level", i32 2}
!3 = !{i32 7, !"uwtable", i32 1}
!4 = !{!"clang version 13.0.0"}
!5 = !{!6, !6, i64 0}
!6 = !{!"int", !7, i64 0}
!7 = !{!"omnipotent char", !8, i64 0}
!8 = !{!"Simple C/C++ TBAA"}
!9 = distinct !{!9, !10}
!10 = !{!"llvm.loop.mustprogress"}
!11 = !{!12, !6, i64 20}
!12 = !{!"patient", !7, i64 0, !6, i64 20}
!13 = !{!7, !7, i64 0}
!14 = distinct !{!14, !10}
!15 = distinct !{!15, !10}
